; Function Attrs: mustprogress nounwind uwtable
define noundef nonnull align 8 dereferenceable(8) ptr @_ZN22PreprocessingAtomTypesaSEOS_(ptr noundef nonnull returned align 8 dereferenceable(8) %0, ptr noundef nonnull align 8 captures(none) dereferenceable(8) %1) local_unnamed_addr #10 align 2 personality ptr @__gxx_personality_v0 {
  %3 = load ptr, ptr %1, align 8, !tbaa !4
  store ptr null, ptr %1, align 8, !tbaa !4
  %4 = load ptr, ptr %0, align 8, !tbaa !4
  store ptr %3, ptr %0, align 8, !tbaa !4
  %.not.i.i.i.i = icmp eq ptr %4, null
  br i1 %.not.i.i.i.i, label %_ZNSt10unique_ptrIN22PreprocessingAtomTypes4ImplESt14default_deleteIS1_EEaSEOS4_.exit, label %5

5:                                                ; preds = %2
  tail call void @_ZNKSt14default_deleteIN22PreprocessingAtomTypes4ImplEEclEPS1_(ptr noundef nonnull align 8 dereferenceable(8) %0, ptr noundef nonnull %4)
  br label %_ZNSt10unique_ptrIN22PreprocessingAtomTypes4ImplESt14default_deleteIS1_EEaSEOS4_.exit

_ZNSt10unique_ptrIN22PreprocessingAtomTypes4ImplESt14default_deleteIS1_EEaSEOS4_.exit: ; preds = %2, %5
  ret ptr %0
}